#include <math.h>
#include <stdio.h>
#include <stdlib.h>
#include <string.h>


int main()
{
    char s[200], w[200];
    int i, j, lens, lenw;

    scanf("%s%s", w, s);
    lens = strlen(s);
    lenw = strlen(w);
    for (i=0; i<lens; i++) {
        for (j=0; j<lenw; j++)
            if (s[i+j] != w[j]) 
                break;
        if (j == lenw) {
            printf("%d", i);
            return 0;
        }
    }

    return 0;
}
