; ModuleID = '45/997.c'
source_filename = "45/997.c"
target datalayout = "e-m:e-p270:32:32-p271:32:32-p272:64:64-i64:64-f80:128-n8:16:32:64-S128"
target triple = "x86_64-pc-linux-gnu"

@.str = private unnamed_addr constant [5 x i8] c"%s%s\00", align 1
@.str.1 = private unnamed_addr constant [3 x i8] c"%d\00", align 1

; Function Attrs: noinline nounwind uwtable
define dso_local i32 @main() #0 {
  %1 = alloca i32, align 4
  %2 = alloca [200 x i8], align 16
  %3 = alloca [200 x i8], align 16
  %4 = alloca i32, align 4
  %5 = alloca i32, align 4
  %6 = alloca i32, align 4
  %7 = alloca i32, align 4
  store i32 0, i32* %1, align 4
  %8 = getelementptr inbounds [200 x i8], [200 x i8]* %3, i64 0, i64 0
  %9 = getelementptr inbounds [200 x i8], [200 x i8]* %2, i64 0, i64 0
  %10 = call i32 (i8*, ...) @__isoc99_scanf(i8* getelementptr inbounds ([5 x i8], [5 x i8]* @.str, i64 0, i64 0), i8* %8, i8* %9)
  %11 = getelementptr inbounds [200 x i8], [200 x i8]* %2, i64 0, i64 0
  %12 = call i64 @strlen(i8* %11) #3
  %13 = trunc i64 %12 to i32
  store i32 %13, i32* %6, align 4
  %14 = getelementptr inbounds [200 x i8], [200 x i8]* %3, i64 0, i64 0
  %15 = call i64 @strlen(i8* %14) #3
  %16 = trunc i64 %15 to i32
  store i32 %16, i32* %7, align 4
  store i32 0, i32* %4, align 4
  br label %17

17:                                               ; preds = %53, %0
  %18 = load i32, i32* %4, align 4
  %19 = load i32, i32* %6, align 4
  %20 = icmp slt i32 %18, %19
  br i1 %20, label %21, label %56

21:                                               ; preds = %17
  store i32 0, i32* %5, align 4
  br label %22

22:                                               ; preds = %42, %21
  %23 = load i32, i32* %5, align 4
  %24 = load i32, i32* %7, align 4
  %25 = icmp slt i32 %23, %24
  br i1 %25, label %26, label %45

26:                                               ; preds = %22
  %27 = load i32, i32* %4, align 4
  %28 = load i32, i32* %5, align 4
  %29 = add nsw i32 %27, %28
  %30 = sext i32 %29 to i64
  %31 = getelementptr inbounds [200 x i8], [200 x i8]* %2, i64 0, i64 %30
  %32 = load i8, i8* %31, align 1
  %33 = sext i8 %32 to i32
  %34 = load i32, i32* %5, align 4
  %35 = sext i32 %34 to i64
  %36 = getelementptr inbounds [200 x i8], [200 x i8]* %3, i64 0, i64 %35
  %37 = load i8, i8* %36, align 1
  %38 = sext i8 %37 to i32
  %39 = icmp ne i32 %33, %38
  br i1 %39, label %40, label %41

40:                                               ; preds = %26
  br label %45

41:                                               ; preds = %26
  br label %42

42:                                               ; preds = %41
  %43 = load i32, i32* %5, align 4
  %44 = add nsw i32 %43, 1
  store i32 %44, i32* %5, align 4
  br label %22

45:                                               ; preds = %40, %22
  %46 = load i32, i32* %5, align 4
  %47 = load i32, i32* %7, align 4
  %48 = icmp eq i32 %46, %47
  br i1 %48, label %49, label %52

49:                                               ; preds = %45
  %50 = load i32, i32* %4, align 4
  %51 = call i32 (i8*, ...) @printf(i8* getelementptr inbounds ([3 x i8], [3 x i8]* @.str.1, i64 0, i64 0), i32 %50)
  store i32 0, i32* %1, align 4
  br label %57

52:                                               ; preds = %45
  br label %53

53:                                               ; preds = %52
  %54 = load i32, i32* %4, align 4
  %55 = add nsw i32 %54, 1
  store i32 %55, i32* %4, align 4
  br label %17

56:                                               ; preds = %17
  store i32 0, i32* %1, align 4
  br label %57

57:                                               ; preds = %56, %49
  %58 = load i32, i32* %1, align 4
  ret i32 %58
}

declare dso_local i32 @__isoc99_scanf(i8*, ...) #1

; Function Attrs: nounwind readonly
declare dso_local i64 @strlen(i8*) #2

declare dso_local i32 @printf(i8*, ...) #1


!llvm.module.flags = !{!0}
!llvm.ident = !{!1}

!0 = !{i32 1, !"wchar_size", i32 4}
!1 = !{!"clang version 10.0.0-4ubuntu1 "}
