; ModuleID = 'source-C-CXX/44/997.c'
source_filename = "source-C-CXX/44/997.c"
target datalayout = "e-m:e-p270:32:32-p271:32:32-p272:64:64-i64:64-f80:128-n8:16:32:64-S128"
target triple = "x86_64-pc-linux-gnu"

@.str = private unnamed_addr constant [5 x i8] c"%s%s\00", align 1
@.str.1 = private unnamed_addr constant [3 x i8] c"%d\00", align 1

; Function Attrs: nofree nounwind sspstrong uwtable
define dso_local i32 @main() local_unnamed_addr #0 {
  %1 = alloca [200 x i8], align 16
  %2 = alloca [200 x i8], align 16
  %3 = getelementptr inbounds [200 x i8], [200 x i8]* %1, i64 0, i64 0
  call void @llvm.lifetime.start.p0i8(i64 200, i8* nonnull %3) #4
  %4 = getelementptr inbounds [200 x i8], [200 x i8]* %2, i64 0, i64 0
  call void @llvm.lifetime.start.p0i8(i64 200, i8* nonnull %4) #4
  %5 = call i32 (i8*, ...) @__isoc99_scanf(i8* getelementptr inbounds ([5 x i8], [5 x i8]* @.str, i64 0, i64 0), i8* nonnull %4, i8* nonnull %3)
  %6 = call i64 @strlen(i8* noundef nonnull %3) #5
  %7 = trunc i64 %6 to i32
  %8 = call i64 @strlen(i8* noundef nonnull %4) #5
  %9 = trunc i64 %8 to i32
  %10 = icmp sgt i32 %7, 0
  br i1 %10, label %11, label %42

11:                                               ; preds = %0
  %12 = icmp sgt i32 %9, 0
  br i1 %12, label %13, label %35

13:                                               ; preds = %11
  %14 = and i64 %6, 4294967295
  %15 = and i64 %8, 4294967295
  br label %16

16:                                               ; preds = %13, %29
  %17 = phi i64 [ 0, %13 ], [ %30, %29 ]
  br label %18

18:                                               ; preds = %16, %32
  %19 = phi i64 [ 0, %16 ], [ %33, %32 ]
  %20 = add nuw nsw i64 %19, %17
  %21 = getelementptr inbounds [200 x i8], [200 x i8]* %1, i64 0, i64 %20
  %22 = load i8, i8* %21, align 1, !tbaa !5
  %23 = getelementptr inbounds [200 x i8], [200 x i8]* %2, i64 0, i64 %19
  %24 = load i8, i8* %23, align 1, !tbaa !5
  %25 = icmp eq i8 %22, %24
  br i1 %25, label %32, label %26

26:                                               ; preds = %18
  %27 = trunc i64 %19 to i32
  %28 = icmp eq i32 %27, %9
  br i1 %28, label %37, label %29

29:                                               ; preds = %26
  %30 = add nuw nsw i64 %17, 1
  %31 = icmp eq i64 %30, %14
  br i1 %31, label %42, label %16, !llvm.loop !8

32:                                               ; preds = %18
  %33 = add nuw nsw i64 %19, 1
  %34 = icmp eq i64 %33, %15
  br i1 %34, label %37, label %18, !llvm.loop !10

35:                                               ; preds = %11
  %36 = icmp eq i32 %9, 0
  br i1 %36, label %39, label %42

37:                                               ; preds = %26, %32
  %38 = trunc i64 %17 to i32
  br label %39

39:                                               ; preds = %37, %35
  %40 = phi i32 [ 0, %35 ], [ %38, %37 ]
  %41 = call i32 (i8*, ...) @printf(i8* nonnull dereferenceable(1) getelementptr inbounds ([3 x i8], [3 x i8]* @.str.1, i64 0, i64 0), i32 %40)
  br label %42

42:                                               ; preds = %29, %35, %0, %39
  call void @llvm.lifetime.end.p0i8(i64 200, i8* nonnull %4) #4
  call void @llvm.lifetime.end.p0i8(i64 200, i8* nonnull %3) #4
  ret i32 0
}

; Function Attrs: argmemonly mustprogress nofree nosync nounwind willreturn
declare void @llvm.lifetime.start.p0i8(i64 immarg, i8* nocapture) #1

; Function Attrs: nofree nounwind
declare noundef i32 @__isoc99_scanf(i8* nocapture noundef readonly, ...) local_unnamed_addr #2

; Function Attrs: argmemonly mustprogress nofree nounwind readonly willreturn
declare i64 @strlen(i8* nocapture) local_unnamed_addr #3

; Function Attrs: nofree nounwind
declare noundef i32 @printf(i8* nocapture noundef readonly, ...) local_unnamed_addr #2

; Function Attrs: argmemonly mustprogress nofree nosync nounwind willreturn
declare void @llvm.lifetime.end.p0i8(i64 immarg, i8* nocapture) #1


!llvm.module.flags = !{!0, !1, !2, !3}
!llvm.ident = !{!4}

!0 = !{i32 1, !"wchar_size", i32 4}
!1 = !{i32 7, !"PIC Level", i32 2}
!2 = !{i32 7, !"PIE Level", i32 2}
!3 = !{i32 7, !"uwtable", i32 1}
!4 = !{!"clang version 13.0.0"}
!5 = !{!6, !6, i64 0}
!6 = !{!"omnipotent char", !7, i64 0}
!7 = !{!"Simple C/C++ TBAA"}
!8 = distinct !{!8, !9}
!9 = !{!"llvm.loop.mustprogress"}
!10 = distinct !{!10, !9}
